target datalayout = "e-m:e-p270:32:32-p271:32:32-p272:64:64-i64:64-i128:128-f80:128-n8:16:32:64-S128"
target triple = "x86_64-pc-linux-gnu"

%struct.H5C_log_info_t = type { i8, i8, ptr, ptr }
%struct.H5C_log_trace_udata_t = type { ptr, ptr }

@H5C_init_g = external global i8, align 1
@H5_libterm_g = external global i8, align 1
@.str = private unnamed_addr constant [106 x i8] c"generated/home/dtcxzyw/WorkSpace/Projects/compilers/llvm-opt-benchmark/bench/hdf5/hdf5/src/H5Clog_trace.c\00", align 1
@H5E_CACHE_g = external global i64, align 8
@H5E_LOGGING_g = external global i64, align 8
@__func__.H5C__trace_tear_down_logging = private unnamed_addr constant [29 x i8] c"H5C__trace_tear_down_logging\00", align 1
@.str.9 = private unnamed_addr constant [29 x i8] c"problem closing mdc log file\00", align 1

; Function Attrs: nounwind uwtable
define internal i32 @H5C__trace_tear_down_logging(ptr noundef %0) #0 {
  %2 = alloca ptr, align 8
  %3 = alloca ptr, align 8
  %4 = alloca i32, align 4
  %5 = alloca i8, align 1
  store ptr %0, ptr %2, align 8, !tbaa !3
  call void @llvm.lifetime.start.p0(i64 8, ptr %3) #8
  store ptr null, ptr %3, align 8, !tbaa !12
  call void @llvm.lifetime.start.p0(i64 4, ptr %4) #8
  store i32 0, ptr %4, align 4, !tbaa !10
  call void @llvm.lifetime.start.p0(i64 1, ptr %5) #8
  store i8 0, ptr %5, align 1, !tbaa !14
  %6 = load i8, ptr @H5C_init_g, align 1, !tbaa !14, !range !16, !noundef !17
  %7 = trunc i8 %6 to i1
  br i1 %7, label %12, label %8

8:                                                ; preds = %1
  %9 = load i8, ptr @H5_libterm_g, align 1, !tbaa !14, !range !16, !noundef !17
  %10 = trunc i8 %9 to i1
  %11 = xor i1 %10, true
  br label %12

12:                                               ; preds = %8, %1
  %13 = phi i1 [ true, %1 ], [ %11, %8 ]
  %14 = xor i1 %13, true
  %15 = xor i1 %14, true
  %16 = zext i1 %15 to i32
  %17 = sext i32 %16 to i64
  %18 = call i64 @llvm.expect.i64(i64 %17, i64 1)
  %19 = icmp ne i64 %18, 0
  br i1 %19, label %20, label %62

20:                                               ; preds = %12
  %21 = load ptr, ptr %2, align 8, !tbaa !3
  %22 = getelementptr inbounds nuw %struct.H5C_log_info_t, ptr %21, i32 0, i32 3
  %23 = load ptr, ptr %22, align 8, !tbaa !21
  store ptr %23, ptr %3, align 8, !tbaa !12
  %24 = load ptr, ptr %3, align 8, !tbaa !12
  %25 = getelementptr inbounds nuw %struct.H5C_log_trace_udata_t, ptr %24, i32 0, i32 1
  %26 = load ptr, ptr %25, align 8, !tbaa !24
  %27 = call ptr @H5MM_xfree(ptr noundef %26)
  %28 = load ptr, ptr %3, align 8, !tbaa !12
  %29 = getelementptr inbounds nuw %struct.H5C_log_trace_udata_t, ptr %28, i32 0, i32 0
  %30 = load ptr, ptr %29, align 8, !tbaa !27
  %31 = call i32 @fclose(ptr noundef %30)
  %32 = icmp eq i32 -1, %31
  br i1 %32, label %33, label %52

33:                                               ; preds = %20
  br label %34

34:                                               ; preds = %33
  br label %35

35:                                               ; preds = %34
  br label %36

36:                                               ; preds = %35
  %37 = load i64, ptr @H5E_CACHE_g, align 8, !tbaa !22
  %38 = load i64, ptr @H5E_LOGGING_g, align 8, !tbaa !22
  %39 = call i32 (ptr, ptr, i32, i64, i64, ptr, ...) @H5E_printf_stack(ptr noundef @.str, ptr noundef @__func__.H5C__trace_tear_down_logging, i32 noundef 296, i64 noundef %37, i64 noundef %38, ptr noundef @.str.9)
  br label %40

40:                                               ; preds = %36
  br label %41

41:                                               ; preds = %40
  store i8 1, ptr %5, align 1, !tbaa !14
  %42 = load i8, ptr %5, align 1, !tbaa !14, !range !16, !noundef !17
  %43 = trunc i8 %42 to i1
  %44 = zext i1 %43 to i8
  store i8 %44, ptr %5, align 1, !tbaa !14
  br label %45

45:                                               ; preds = %41
  br label %46

46:                                               ; preds = %45
  br label %47

47:                                               ; preds = %46
  store i32 -1, ptr %4, align 4, !tbaa !10
  br label %61

48:                                               ; No predecessors!
  br label %49

49:                                               ; preds = %48
  br label %50

50:                                               ; preds = %49
  br label %51

51:                                               ; preds = %50
  br label %52

52:                                               ; preds = %51, %20
  %53 = load ptr, ptr %3, align 8, !tbaa !12
  %54 = getelementptr inbounds nuw %struct.H5C_log_trace_udata_t, ptr %53, i32 0, i32 0
  store ptr null, ptr %54, align 8, !tbaa !27
  %55 = load ptr, ptr %3, align 8, !tbaa !12
  %56 = call ptr @H5MM_xfree(ptr noundef %55)
  %57 = load ptr, ptr %2, align 8, !tbaa !3
  %58 = getelementptr inbounds nuw %struct.H5C_log_info_t, ptr %57, i32 0, i32 2
  store ptr null, ptr %58, align 8, !tbaa !18
  %59 = load ptr, ptr %2, align 8, !tbaa !3
  %60 = getelementptr inbounds nuw %struct.H5C_log_info_t, ptr %59, i32 0, i32 3
  store ptr null, ptr %60, align 8, !tbaa !21
  br label %61

61:                                               ; preds = %52, %47
  br label %62

62:                                               ; preds = %61, %12
  %63 = load i32, ptr %4, align 4, !tbaa !10
  call void @llvm.lifetime.end.p0(i64 1, ptr %5) #8
  call void @llvm.lifetime.end.p0(i64 4, ptr %4) #8
  call void @llvm.lifetime.end.p0(i64 8, ptr %3) #8
  ret i32 %63
}