; Function Attrs: nounwind uwtable
define internal range(i32 -1, 1) i32 @H5C__trace_tear_down_logging(ptr noundef captures(none) %0) #0 {
  %2 = load i8, ptr @H5C_init_g, align 1, !tbaa !3, !range !7, !noundef !8
  %3 = trunc nuw i8 %2 to i1
  %4 = load i8, ptr @H5_libterm_g, align 1, !range !7
  %5 = trunc nuw i8 %4 to i1
  %6 = xor i1 %5, true
  %7 = select i1 %3, i1 true, i1 %6
  br i1 %7, label %8, label %24, !prof !9

8:                                                ; preds = %1
  %9 = getelementptr inbounds nuw i8, ptr %0, i64 16
  %10 = load ptr, ptr %9, align 8, !tbaa !14
  %11 = getelementptr inbounds nuw i8, ptr %10, i64 8
  %12 = load ptr, ptr %11, align 8, !tbaa !15
  %13 = tail call ptr @H5MM_xfree(ptr noundef %12) #8
  %14 = load ptr, ptr %10, align 8, !tbaa !21
  %15 = tail call i32 @fclose(ptr noundef %14)
  %16 = icmp eq i32 %15, -1
  br i1 %16, label %17, label %21

17:                                               ; preds = %8
  %18 = load i64, ptr @H5E_CACHE_g, align 8, !tbaa !19
  %19 = load i64, ptr @H5E_LOGGING_g, align 8, !tbaa !19
  %20 = tail call i32 (ptr, ptr, i32, i64, i64, ptr, ...) @H5E_printf_stack(ptr noundef nonnull @.str, ptr noundef nonnull @__func__.H5C__trace_tear_down_logging, i32 noundef 296, i64 noundef %18, i64 noundef %19, ptr noundef nonnull @.str.9) #8
  br label %24

21:                                               ; preds = %8
  store ptr null, ptr %10, align 8, !tbaa !21
  %22 = tail call ptr @H5MM_xfree(ptr noundef nonnull %10) #8
  %23 = getelementptr inbounds nuw i8, ptr %0, i64 8
  tail call void @llvm.memset.p0.i64(ptr noundef nonnull align 8 dereferenceable(16) %23, i8 0, i64 16, i1 false)
  br label %24

24:                                               ; preds = %17, %21, %1
  %.0 = phi i32 [ -1, %17 ], [ 0, %21 ], [ 0, %1 ]
  ret i32 %.0
}